target datalayout = "e-m:e-p270:32:32-p271:32:32-p272:64:64-i64:64-i128:128-f80:128-n8:16:32:64-S128"
target triple = "x86_64-pc-linux-gnu"

%"class.icu_77::UObject" = type { ptr }
%"class.icu_77::SimpleFilteredBreakIteratorBuilder" = type { %"class.icu_77::FilteredBreakIteratorBuilder", %"class.icu_77::UStringSet" }
%"class.icu_77::FilteredBreakIteratorBuilder" = type { %"class.icu_77::UObject" }
%"class.icu_77::UStringSet" = type { %"class.icu_77::UVector" }
%"class.icu_77::UVector" = type { %"class.icu_77::UObject", i32, i32, ptr, ptr, ptr }

; Function Attrs: inlinehint mustprogress nounwind uwtable
define internal noundef signext i8 @_ZL9U_FAILURE10UErrorCode(i32 noundef %0) #5 {
  %2 = alloca i32, align 4
  store i32 %0, ptr %2, align 4, !tbaa !41
  %3 = load i32, ptr %2, align 4, !tbaa !41
  %4 = icmp sgt i32 %3, 0
  %5 = zext i1 %4 to i8
  ret i8 %5
}

; Function Attrs: inlinehint mustprogress uwtable
define linkonce_odr noundef signext i8 @_ZN6icu_7710UStringSet6removeERKNS_13UnicodeStringER10UErrorCode(ptr noundef nonnull align 8 dereferenceable(40) %0, ptr noundef nonnull align 8 dereferenceable(64) %1, ptr noundef nonnull align 4 dereferenceable(4) %2) #7 comdat align 2 {
  %4 = alloca i8, align 1
  %5 = alloca ptr, align 8
  %6 = alloca ptr, align 8
  %7 = alloca ptr, align 8
  store ptr %0, ptr %5, align 8, !tbaa !3
  store ptr %1, ptr %6, align 8, !tbaa !83
  store ptr %2, ptr %7, align 8, !tbaa !40
  %8 = load ptr, ptr %5, align 8
  %9 = load ptr, ptr %7, align 8, !tbaa !40
  %10 = load i32, ptr %9, align 4, !tbaa !41
  %11 = call noundef signext i8 @_ZL9U_FAILURE10UErrorCode(i32 noundef %10)
  %12 = icmp ne i8 %11, 0
  br i1 %12, label %13, label %14

13:                                               ; preds = %3
  store i8 0, ptr %4, align 1
  br label %17

14:                                               ; preds = %3
  %15 = load ptr, ptr %6, align 8, !tbaa !83
  %16 = call noundef signext i8 @_ZN6icu_777UVector13removeElementEPv(ptr noundef nonnull align 8 dereferenceable(40) %8, ptr noundef %15)
  store i8 %16, ptr %4, align 1
  br label %17

17:                                               ; preds = %14, %13
  %18 = load i8, ptr %4, align 1
  ret i8 %18
}

; Function Attrs: mustprogress uwtable
define noundef signext i8 @_ZN6icu_7734SimpleFilteredBreakIteratorBuilder20unsuppressBreakAfterERKNS_13UnicodeStringER10UErrorCode(ptr noundef nonnull align 8 dereferenceable(48) %0, ptr noundef nonnull align 8 dereferenceable(64) %1, ptr noundef nonnull align 4 dereferenceable(4) %2) unnamed_addr #2 align 2 {
  %4 = alloca ptr, align 8
  %5 = alloca ptr, align 8
  %6 = alloca ptr, align 8
  %7 = alloca i8, align 1
  store ptr %0, ptr %4, align 8, !tbaa !68
  store ptr %1, ptr %5, align 8, !tbaa !83
  store ptr %2, ptr %6, align 8, !tbaa !40
  %8 = load ptr, ptr %4, align 8
  call void @llvm.lifetime.start.p0(i64 1, ptr %7) #13
  %9 = getelementptr inbounds nuw %"class.icu_77::SimpleFilteredBreakIteratorBuilder", ptr %8, i32 0, i32 1
  %10 = load ptr, ptr %5, align 8, !tbaa !83
  %11 = load ptr, ptr %6, align 8, !tbaa !40
  %12 = call noundef signext i8 @_ZN6icu_7710UStringSet6removeERKNS_13UnicodeStringER10UErrorCode(ptr noundef nonnull align 8 dereferenceable(40) %9, ptr noundef nonnull align 8 dereferenceable(64) %10, ptr noundef nonnull align 4 dereferenceable(4) %11)
  store i8 %12, ptr %7, align 1, !tbaa !85
  %13 = load i8, ptr %7, align 1, !tbaa !85
  call void @llvm.lifetime.end.p0(i64 1, ptr %7) #13
  ret i8 %13
}