; Function Attrs: mustprogress uwtable
define noundef signext i8 @_ZN6icu_7734SimpleFilteredBreakIteratorBuilder20unsuppressBreakAfterERKNS_13UnicodeStringER10UErrorCode(ptr noundef nonnull align 8 dereferenceable(48) %0, ptr noundef nonnull align 8 dereferenceable(64) %1, ptr noundef nonnull readonly align 4 captures(none) dereferenceable(4) %2) unnamed_addr #2 align 2 {
  %4 = load i32, ptr %2, align 4, !tbaa !28
  %5 = icmp slt i32 %4, 1
  br i1 %5, label %6, label %_ZN6icu_7710UStringSet6removeERKNS_13UnicodeStringER10UErrorCode.exit

6:                                                ; preds = %3
  %7 = getelementptr inbounds nuw i8, ptr %0, i64 8
  %8 = tail call noundef signext i8 @_ZN6icu_777UVector13removeElementEPv(ptr noundef nonnull align 8 dereferenceable(40) %7, ptr noundef nonnull align 8 dereferenceable(64) %1)
  br label %_ZN6icu_7710UStringSet6removeERKNS_13UnicodeStringER10UErrorCode.exit

_ZN6icu_7710UStringSet6removeERKNS_13UnicodeStringER10UErrorCode.exit: ; preds = %3, %6
  %.0.i = phi i8 [ %8, %6 ], [ 0, %3 ]
  ret i8 %.0.i
}